; Function Attrs: nounwind uwtable
define dso_local void @sema_error(ptr nocapture noundef readonly %0, ptr noundef %1, ...) local_unnamed_addr #0 {
  %3 = alloca [1 x %struct.__va_list_tag], align 16
  %4 = load i32, ptr getelementptr inbounds (%struct.GlobalContext, ptr @global_context, i64 0, i32 10), align 4
  %5 = add i32 %4, 1
  store i32 %5, ptr getelementptr inbounds (%struct.GlobalContext, ptr @global_context, i64 0, i32 10), align 4
  %6 = getelementptr inbounds i8, ptr %0, i64 64
  %7 = load ptr, ptr %6, align 8
  %8 = getelementptr inbounds i8, ptr %7, i64 8
  %9 = load ptr, ptr %8, align 8
  call void @llvm.va_start.p0(ptr nonnull %3)
  %10 = getelementptr inbounds i8, ptr %9, i64 24
  %11 = load ptr, ptr %10, align 8
  call void (ptr, ...) @eprintf(ptr noundef nonnull @.str, ptr noundef %11) #8
  call void @evprintf(ptr noundef %1, ptr noundef nonnull %3) #8
  call void (ptr, ...) @eprintf(ptr noundef nonnull @.str.1) #8
  call void @llvm.va_end.p0(ptr nonnull %3)
  ret void
}